; Function Attrs: mustprogress uwtable
define hidden i32 @mbedtls_md_hmac_reset(ptr noundef readonly captures(address_is_null) %0) local_unnamed_addr #5 {
  %2 = icmp eq ptr %0, null
  br i1 %2, label %mbedtls_md_update.exit, label %3

3:                                                ; preds = %1
  %4 = load ptr, ptr %0, align 8, !tbaa !3
  %5 = icmp eq ptr %4, null
  br i1 %5, label %mbedtls_md_update.exit, label %6

6:                                                ; preds = %3
  %7 = getelementptr inbounds nuw i8, ptr %0, i64 16
  %8 = load ptr, ptr %7, align 8, !tbaa !14
  %9 = icmp eq ptr %8, null
  br i1 %9, label %mbedtls_md_update.exit, label %10

10:                                               ; preds = %6
  %11 = getelementptr inbounds nuw i8, ptr %4, i64 8
  %12 = load i32, ptr %11, align 8, !tbaa !10
  switch i32 %12, label %mbedtls_md_update.exit [
    i32 2, label %13
    i32 3, label %17
    i32 4, label %21
  ]

13:                                               ; preds = %10
  %14 = getelementptr inbounds nuw i8, ptr %0, i64 8
  %15 = load ptr, ptr %14, align 8, !tbaa !9
  %16 = tail call i32 @mbedtls_sha1_starts(ptr noundef %15)
  br label %mbedtls_md_starts.exit

17:                                               ; preds = %10
  %18 = getelementptr inbounds nuw i8, ptr %0, i64 8
  %19 = load ptr, ptr %18, align 8, !tbaa !9
  %20 = tail call i32 @mbedtls_sha256_starts(ptr noundef %19, i32 noundef 1)
  br label %mbedtls_md_starts.exit

21:                                               ; preds = %10
  %22 = getelementptr inbounds nuw i8, ptr %0, i64 8
  %23 = load ptr, ptr %22, align 8, !tbaa !9
  %24 = tail call i32 @mbedtls_sha256_starts(ptr noundef %23, i32 noundef 0)
  br label %mbedtls_md_starts.exit

mbedtls_md_starts.exit:                           ; preds = %13, %17, %21
  %.0.i = phi i32 [ %24, %21 ], [ %20, %17 ], [ %16, %13 ]
  %.not = icmp eq i32 %.0.i, 0
  br i1 %.not, label %25, label %mbedtls_md_update.exit

25:                                               ; preds = %mbedtls_md_starts.exit
  %26 = load ptr, ptr %0, align 8, !tbaa !3
  %27 = getelementptr inbounds nuw i8, ptr %26, i64 13
  %28 = load i8, ptr %27, align 1, !tbaa !15
  %29 = zext i8 %28 to i64
  %30 = getelementptr inbounds nuw i8, ptr %26, i64 8
  %31 = load i32, ptr %30, align 8, !tbaa !10
  switch i32 %31, label %mbedtls_md_update.exit [
    i32 2, label %32
    i32 3, label %36
    i32 4, label %40
  ]

32:                                               ; preds = %25
  %33 = getelementptr inbounds nuw i8, ptr %0, i64 8
  %34 = load ptr, ptr %33, align 8, !tbaa !9
  %35 = tail call i32 @mbedtls_sha1_update(ptr noundef %34, ptr noundef nonnull %8, i64 noundef %29)
  br label %mbedtls_md_update.exit

36:                                               ; preds = %25
  %37 = getelementptr inbounds nuw i8, ptr %0, i64 8
  %38 = load ptr, ptr %37, align 8, !tbaa !9
  %39 = tail call i32 @mbedtls_sha256_update(ptr noundef %38, ptr noundef nonnull %8, i64 noundef %29)
  br label %mbedtls_md_update.exit

40:                                               ; preds = %25
  %41 = getelementptr inbounds nuw i8, ptr %0, i64 8
  %42 = load ptr, ptr %41, align 8, !tbaa !9
  %43 = tail call i32 @mbedtls_sha256_update(ptr noundef %42, ptr noundef nonnull %8, i64 noundef %29)
  br label %mbedtls_md_update.exit

mbedtls_md_update.exit:                           ; preds = %10, %40, %36, %32, %25, %mbedtls_md_starts.exit, %1, %3, %6
  %.0 = phi i32 [ -20736, %6 ], [ -20736, %3 ], [ -20736, %1 ], [ %.0.i, %mbedtls_md_starts.exit ], [ %43, %40 ], [ %39, %36 ], [ %35, %32 ], [ -20736, %25 ], [ -20736, %10 ]
  ret i32 %.0
}